target datalayout = "e-m:e-p270:32:32-p271:32:32-p272:64:64-i64:64-i128:128-f80:128-n8:16:32:64-S128"
target triple = "x86_64-pc-linux-gnu"

%struct.SN_env = type { ptr, i32, i32, i32, i32, i32, ptr, ptr }

; Function Attrs: nounwind uwtable
define internal i32 @r_Suffix_Verb_Step2a(ptr noundef %0) #0 {
  %2 = alloca i32, align 4
  %3 = alloca ptr, align 8
  %4 = alloca i32, align 4
  %5 = alloca i32, align 4
  %6 = alloca i32, align 4
  %7 = alloca i32, align 4
  %8 = alloca i32, align 4
  %9 = alloca i32, align 4
  store ptr %0, ptr %3, align 8
  call void @llvm.lifetime.start.p0(i64 4, ptr %4) #3
  %10 = load ptr, ptr %3, align 8
  %11 = getelementptr inbounds nuw %struct.SN_env, ptr %10, i32 0, i32 1
  %12 = load i32, ptr %11, align 8
  %13 = load ptr, ptr %3, align 8
  %14 = getelementptr inbounds nuw %struct.SN_env, ptr %13, i32 0, i32 5
  store i32 %12, ptr %14, align 8
  %15 = load ptr, ptr %3, align 8
  %16 = call i32 @find_among_b(ptr noundef %15, ptr noundef @a_18, i32 noundef 11)
  store i32 %16, ptr %4, align 4
  %17 = load i32, ptr %4, align 4
  %18 = icmp ne i32 %17, 0
  br i1 %18, label %20, label %19

19:                                               ; preds = %1
  store i32 0, ptr %2, align 4
  store i32 1, ptr %5, align 4
  br label %100

20:                                               ; preds = %1
  %21 = load ptr, ptr %3, align 8
  %22 = getelementptr inbounds nuw %struct.SN_env, ptr %21, i32 0, i32 1
  %23 = load i32, ptr %22, align 8
  %24 = load ptr, ptr %3, align 8
  %25 = getelementptr inbounds nuw %struct.SN_env, ptr %24, i32 0, i32 4
  store i32 %23, ptr %25, align 4
  %26 = load i32, ptr %4, align 4
  switch i32 %26, label %99 [
    i32 1, label %27
    i32 2, label %45
    i32 3, label %63
    i32 4, label %81
  ]

27:                                               ; preds = %20
  %28 = load ptr, ptr %3, align 8
  %29 = getelementptr inbounds nuw %struct.SN_env, ptr %28, i32 0, i32 0
  %30 = load ptr, ptr %29, align 8
  %31 = call i32 @len_utf8(ptr noundef %30)
  %32 = icmp sge i32 %31, 4
  br i1 %32, label %34, label %33

33:                                               ; preds = %27
  store i32 0, ptr %2, align 4
  store i32 1, ptr %5, align 4
  br label %100

34:                                               ; preds = %27
  call void @llvm.lifetime.start.p0(i64 4, ptr %6) #3
  %35 = load ptr, ptr %3, align 8
  %36 = call i32 @slice_del(ptr noundef %35)
  store i32 %36, ptr %6, align 4
  %37 = load i32, ptr %6, align 4
  %38 = icmp slt i32 %37, 0
  br i1 %38, label %39, label %41

39:                                               ; preds = %34
  %40 = load i32, ptr %6, align 4
  store i32 %40, ptr %2, align 4
  store i32 1, ptr %5, align 4
  br label %42

41:                                               ; preds = %34
  store i32 0, ptr %5, align 4
  br label %42

42:                                               ; preds = %41, %39
  call void @llvm.lifetime.end.p0(i64 4, ptr %6) #3
  %43 = load i32, ptr %5, align 4
  switch i32 %43, label %100 [
    i32 0, label %44
  ]

44:                                               ; preds = %42
  br label %99

45:                                               ; preds = %20
  %46 = load ptr, ptr %3, align 8
  %47 = getelementptr inbounds nuw %struct.SN_env, ptr %46, i32 0, i32 0
  %48 = load ptr, ptr %47, align 8
  %49 = call i32 @len_utf8(ptr noundef %48)
  %50 = icmp sge i32 %49, 5
  br i1 %50, label %52, label %51

51:                                               ; preds = %45
  store i32 0, ptr %2, align 4
  store i32 1, ptr %5, align 4
  br label %100

52:                                               ; preds = %45
  call void @llvm.lifetime.start.p0(i64 4, ptr %7) #3
  %53 = load ptr, ptr %3, align 8
  %54 = call i32 @slice_del(ptr noundef %53)
  store i32 %54, ptr %7, align 4
  %55 = load i32, ptr %7, align 4
  %56 = icmp slt i32 %55, 0
  br i1 %56, label %57, label %59

57:                                               ; preds = %52
  %58 = load i32, ptr %7, align 4
  store i32 %58, ptr %2, align 4
  store i32 1, ptr %5, align 4
  br label %60

59:                                               ; preds = %52
  store i32 0, ptr %5, align 4
  br label %60

60:                                               ; preds = %59, %57
  call void @llvm.lifetime.end.p0(i64 4, ptr %7) #3
  %61 = load i32, ptr %5, align 4
  switch i32 %61, label %100 [
    i32 0, label %62
  ]

62:                                               ; preds = %60
  br label %99

63:                                               ; preds = %20
  %64 = load ptr, ptr %3, align 8
  %65 = getelementptr inbounds nuw %struct.SN_env, ptr %64, i32 0, i32 0
  %66 = load ptr, ptr %65, align 8
  %67 = call i32 @len_utf8(ptr noundef %66)
  %68 = icmp sgt i32 %67, 5
  br i1 %68, label %70, label %69

69:                                               ; preds = %63
  store i32 0, ptr %2, align 4
  store i32 1, ptr %5, align 4
  br label %100

70:                                               ; preds = %63
  call void @llvm.lifetime.start.p0(i64 4, ptr %8) #3
  %71 = load ptr, ptr %3, align 8
  %72 = call i32 @slice_del(ptr noundef %71)
  store i32 %72, ptr %8, align 4
  %73 = load i32, ptr %8, align 4
  %74 = icmp slt i32 %73, 0
  br i1 %74, label %75, label %77

75:                                               ; preds = %70
  %76 = load i32, ptr %8, align 4
  store i32 %76, ptr %2, align 4
  store i32 1, ptr %5, align 4
  br label %78

77:                                               ; preds = %70
  store i32 0, ptr %5, align 4
  br label %78

78:                                               ; preds = %77, %75
  call void @llvm.lifetime.end.p0(i64 4, ptr %8) #3
  %79 = load i32, ptr %5, align 4
  switch i32 %79, label %100 [
    i32 0, label %80
  ]

80:                                               ; preds = %78
  br label %99

81:                                               ; preds = %20
  %82 = load ptr, ptr %3, align 8
  %83 = getelementptr inbounds nuw %struct.SN_env, ptr %82, i32 0, i32 0
  %84 = load ptr, ptr %83, align 8
  %85 = call i32 @len_utf8(ptr noundef %84)
  %86 = icmp sge i32 %85, 6
  br i1 %86, label %88, label %87

87:                                               ; preds = %81
  store i32 0, ptr %2, align 4
  store i32 1, ptr %5, align 4
  br label %100

88:                                               ; preds = %81
  call void @llvm.lifetime.start.p0(i64 4, ptr %9) #3
  %89 = load ptr, ptr %3, align 8
  %90 = call i32 @slice_del(ptr noundef %89)
  store i32 %90, ptr %9, align 4
  %91 = load i32, ptr %9, align 4
  %92 = icmp slt i32 %91, 0
  br i1 %92, label %93, label %95

93:                                               ; preds = %88
  %94 = load i32, ptr %9, align 4
  store i32 %94, ptr %2, align 4
  store i32 1, ptr %5, align 4
  br label %96

95:                                               ; preds = %88
  store i32 0, ptr %5, align 4
  br label %96

96:                                               ; preds = %95, %93
  call void @llvm.lifetime.end.p0(i64 4, ptr %9) #3
  %97 = load i32, ptr %5, align 4
  switch i32 %97, label %100 [
    i32 0, label %98
  ]

98:                                               ; preds = %96
  br label %99

99:                                               ; preds = %20, %98, %80, %62, %44
  store i32 1, ptr %2, align 4
  store i32 1, ptr %5, align 4
  br label %100

100:                                              ; preds = %99, %96, %87, %78, %69, %60, %51, %42, %33, %19
  call void @llvm.lifetime.end.p0(i64 4, ptr %4) #3
  %101 = load i32, ptr %2, align 4
  ret i32 %101
}